target datalayout = "e-m:e-p270:32:32-p271:32:32-p272:64:64-i64:64-i128:128-f80:128-n8:16:32:64-S128"
target triple = "x86_64-pc-linux-gnu"

%struct.StringInfoData = type { ptr, i32, i32, i32 }
%struct.PQcommMethods = type { ptr, ptr, ptr, ptr, ptr, ptr }

@PqCommMethods = external global ptr, align 8

; Function Attrs: nounwind uwtable
define dso_local void @pq_endmessage(ptr noundef %0) #0 {
  %2 = alloca ptr, align 8
  store ptr %0, ptr %2, align 8
  %3 = load ptr, ptr @PqCommMethods, align 8
  %4 = getelementptr inbounds nuw %struct.PQcommMethods, ptr %3, i32 0, i32 4
  %5 = load ptr, ptr %4, align 8
  %6 = load ptr, ptr %2, align 8
  %7 = getelementptr inbounds nuw %struct.StringInfoData, ptr %6, i32 0, i32 3
  %8 = load i32, ptr %7, align 8
  %9 = trunc i32 %8 to i8
  %10 = load ptr, ptr %2, align 8
  %11 = getelementptr inbounds nuw %struct.StringInfoData, ptr %10, i32 0, i32 0
  %12 = load ptr, ptr %11, align 8
  %13 = load ptr, ptr %2, align 8
  %14 = getelementptr inbounds nuw %struct.StringInfoData, ptr %13, i32 0, i32 1
  %15 = load i32, ptr %14, align 8
  %16 = sext i32 %15 to i64
  %17 = call i32 %5(i8 noundef signext %9, ptr noundef %12, i64 noundef %16)
  %18 = load ptr, ptr %2, align 8
  %19 = getelementptr inbounds nuw %struct.StringInfoData, ptr %18, i32 0, i32 0
  %20 = load ptr, ptr %19, align 8
  call void @pfree(ptr noundef %20)
  %21 = load ptr, ptr %2, align 8
  %22 = getelementptr inbounds nuw %struct.StringInfoData, ptr %21, i32 0, i32 0
  store ptr null, ptr %22, align 8
  ret void
}